target datalayout = "e-m:e-p270:32:32-p271:32:32-p272:64:64-i64:64-i128:128-f80:128-n8:16:32:64-S128"
target triple = "x86_64-pc-linux-gnu"

%struct.mbedtls_entropy_context = type { %struct.mbedtls_md_context_t, i32, i32, [20 x %struct.mbedtls_entropy_source_state] }
%struct.mbedtls_md_context_t = type { ptr, ptr, ptr }
%struct.mbedtls_entropy_source_state = type { ptr, ptr, i64, i64, i32 }

; Function Attrs: nounwind uwtable
define hidden i32 @mbedtls_entropy_add_source(ptr noundef %0, ptr noundef %1, ptr noundef %2, i64 noundef %3, i32 noundef %4) #0 {
  %6 = alloca ptr, align 8
  %7 = alloca ptr, align 8
  %8 = alloca ptr, align 8
  %9 = alloca i64, align 8
  %10 = alloca i32, align 4
  %11 = alloca i32, align 4
  %12 = alloca i32, align 4
  store ptr %0, ptr %6, align 8, !tbaa !3
  store ptr %1, ptr %7, align 8, !tbaa !14
  store ptr %2, ptr %8, align 8, !tbaa !14
  store i64 %3, ptr %9, align 8, !tbaa !15
  store i32 %4, ptr %10, align 4, !tbaa !17
  call void @llvm.lifetime.start.p0(i64 4, ptr %11) #6
  call void @llvm.lifetime.start.p0(i64 4, ptr %12) #6
  store i32 0, ptr %12, align 4, !tbaa !17
  %13 = load ptr, ptr %6, align 8, !tbaa !3
  %14 = getelementptr inbounds nuw %struct.mbedtls_entropy_context, ptr %13, i32 0, i32 2
  %15 = load i32, ptr %14, align 4, !tbaa !8
  store i32 %15, ptr %11, align 4, !tbaa !17
  %16 = load i32, ptr %11, align 4, !tbaa !17
  %17 = icmp sge i32 %16, 20
  br i1 %17, label %18, label %19

18:                                               ; preds = %5
  store i32 -62, ptr %12, align 4, !tbaa !17
  br label %52

19:                                               ; preds = %5
  %20 = load ptr, ptr %7, align 8, !tbaa !14
  %21 = load ptr, ptr %6, align 8, !tbaa !3
  %22 = getelementptr inbounds nuw %struct.mbedtls_entropy_context, ptr %21, i32 0, i32 3
  %23 = load i32, ptr %11, align 4, !tbaa !17
  %24 = sext i32 %23 to i64
  %25 = getelementptr inbounds [20 x %struct.mbedtls_entropy_source_state], ptr %22, i64 0, i64 %24
  %26 = getelementptr inbounds nuw %struct.mbedtls_entropy_source_state, ptr %25, i32 0, i32 0
  store ptr %20, ptr %26, align 8, !tbaa !18
  %27 = load ptr, ptr %8, align 8, !tbaa !14
  %28 = load ptr, ptr %6, align 8, !tbaa !3
  %29 = getelementptr inbounds nuw %struct.mbedtls_entropy_context, ptr %28, i32 0, i32 3
  %30 = load i32, ptr %11, align 4, !tbaa !17
  %31 = sext i32 %30 to i64
  %32 = getelementptr inbounds [20 x %struct.mbedtls_entropy_source_state], ptr %29, i64 0, i64 %31
  %33 = getelementptr inbounds nuw %struct.mbedtls_entropy_source_state, ptr %32, i32 0, i32 1
  store ptr %27, ptr %33, align 8, !tbaa !20
  %34 = load i64, ptr %9, align 8, !tbaa !15
  %35 = load ptr, ptr %6, align 8, !tbaa !3
  %36 = getelementptr inbounds nuw %struct.mbedtls_entropy_context, ptr %35, i32 0, i32 3
  %37 = load i32, ptr %11, align 4, !tbaa !17
  %38 = sext i32 %37 to i64
  %39 = getelementptr inbounds [20 x %struct.mbedtls_entropy_source_state], ptr %36, i64 0, i64 %38
  %40 = getelementptr inbounds nuw %struct.mbedtls_entropy_source_state, ptr %39, i32 0, i32 3
  store i64 %34, ptr %40, align 8, !tbaa !21
  %41 = load i32, ptr %10, align 4, !tbaa !17
  %42 = load ptr, ptr %6, align 8, !tbaa !3
  %43 = getelementptr inbounds nuw %struct.mbedtls_entropy_context, ptr %42, i32 0, i32 3
  %44 = load i32, ptr %11, align 4, !tbaa !17
  %45 = sext i32 %44 to i64
  %46 = getelementptr inbounds [20 x %struct.mbedtls_entropy_source_state], ptr %43, i64 0, i64 %45
  %47 = getelementptr inbounds nuw %struct.mbedtls_entropy_source_state, ptr %46, i32 0, i32 4
  store i32 %41, ptr %47, align 8, !tbaa !22
  %48 = load ptr, ptr %6, align 8, !tbaa !3
  %49 = getelementptr inbounds nuw %struct.mbedtls_entropy_context, ptr %48, i32 0, i32 2
  %50 = load i32, ptr %49, align 4, !tbaa !8
  %51 = add nsw i32 %50, 1
  store i32 %51, ptr %49, align 4, !tbaa !8
  br label %52

52:                                               ; preds = %19, %18
  %53 = load i32, ptr %12, align 4, !tbaa !17
  call void @llvm.lifetime.end.p0(i64 4, ptr %12) #6
  call void @llvm.lifetime.end.p0(i64 4, ptr %11) #6
  ret i32 %53
}