; Function Attrs: mustprogress nofree norecurse nosync nounwind willreturn memory(argmem: readwrite) uwtable
define hidden range(i32 -62, 1) i32 @mbedtls_entropy_add_source(ptr noundef captures(none) %0, ptr noundef %1, ptr noundef %2, i64 noundef %3, i32 noundef %4) local_unnamed_addr #3 {
  %6 = getelementptr inbounds nuw i8, ptr %0, i64 28
  %7 = load i32, ptr %6, align 4, !tbaa !11
  %8 = icmp sgt i32 %7, 19
  br i1 %8, label %17, label %9

9:                                                ; preds = %5
  %10 = getelementptr inbounds nuw i8, ptr %0, i64 32
  %11 = sext i32 %7 to i64
  %12 = getelementptr inbounds [20 x %struct.mbedtls_entropy_source_state], ptr %10, i64 0, i64 %11
  store ptr %1, ptr %12, align 8, !tbaa !12
  %13 = getelementptr inbounds nuw i8, ptr %12, i64 8
  store ptr %2, ptr %13, align 8, !tbaa !15
  %14 = getelementptr inbounds nuw i8, ptr %12, i64 24
  store i64 %3, ptr %14, align 8, !tbaa !16
  %15 = getelementptr inbounds nuw i8, ptr %12, i64 32
  store i32 %4, ptr %15, align 8, !tbaa !17
  %16 = add nsw i32 %7, 1
  store i32 %16, ptr %6, align 4, !tbaa !11
  br label %17

17:                                               ; preds = %5, %9
  %.0 = phi i32 [ 0, %9 ], [ -62, %5 ]
  ret i32 %.0
}